target datalayout = "e-m:e-p270:32:32-p271:32:32-p272:64:64-i64:64-i128:128-f80:128-n8:16:32:64-S128"
target triple = "x86_64-pc-linux-gnu"

%"class.lean::level" = type { %"class.lean::object_ref" }
%"class.lean::object_ref" = type { ptr }

@.str = private unnamed_addr constant [18 x i8] c"level constraints\00", align 1

; Function Attrs: mustprogress uwtable
define hidden noundef zeroext i1 @_ZN4lean13is_equivalentERKNS_5levelES2_(ptr noundef nonnull align 8 dereferenceable(8) %0, ptr noundef nonnull align 8 dereferenceable(8) %1) #0 personality ptr @__gxx_personality_v0 {
  %3 = alloca i1, align 1
  %4 = alloca ptr, align 8
  %5 = alloca ptr, align 8
  %6 = alloca %"class.lean::level", align 8
  %7 = alloca i1, align 1
  %8 = alloca i1, align 1
  %9 = alloca %"class.lean::level", align 8
  %10 = alloca i1, align 1
  %11 = alloca ptr, align 8
  %12 = alloca i32, align 4
  %13 = alloca i1, align 1
  store ptr %0, ptr %4, align 8, !tbaa !3
  store ptr %1, ptr %5, align 8, !tbaa !3
  call void @_ZN4lean12check_systemEPKcb(ptr noundef @.str, i1 noundef zeroext false)
  %14 = load ptr, ptr %4, align 8, !tbaa !3
  %15 = load ptr, ptr %5, align 8, !tbaa !3
  %16 = call noundef zeroext i1 @_ZN4leaneqERKNS_5levelES2_(ptr noundef nonnull align 8 dereferenceable(8) %14, ptr noundef nonnull align 8 dereferenceable(8) %15)
  store i1 false, ptr %7, align 1
  store i1 false, ptr %8, align 1
  store i1 false, ptr %10, align 1
  store i1 false, ptr %13, align 1
  br i1 %16, label %23, label %17

17:                                               ; preds = %2
  call void @llvm.lifetime.start.p0(i64 8, ptr %6) #17
  store i1 true, ptr %7, align 1
  %18 = load ptr, ptr %4, align 8, !tbaa !3
  call void @_ZN4lean9normalizeERKNS_5levelE(ptr dead_on_unwind writable sret(%"class.lean::level") align 8 %6, ptr noundef nonnull align 8 dereferenceable(8) %18)
  store i1 true, ptr %8, align 1
  call void @llvm.lifetime.start.p0(i64 8, ptr %9) #17
  store i1 true, ptr %10, align 1
  %19 = load ptr, ptr %5, align 8, !tbaa !3
  invoke void @_ZN4lean9normalizeERKNS_5levelE(ptr dead_on_unwind writable sret(%"class.lean::level") align 8 %9, ptr noundef nonnull align 8 dereferenceable(8) %19)
          to label %20 unwind label %38

20:                                               ; preds = %17
  store i1 true, ptr %13, align 1
  %21 = invoke noundef zeroext i1 @_ZN4leaneqERKNS_5levelES2_(ptr noundef nonnull align 8 dereferenceable(8) %6, ptr noundef nonnull align 8 dereferenceable(8) %9)
          to label %22 unwind label %42

22:                                               ; preds = %20
  br label %23

23:                                               ; preds = %22, %2
  %24 = phi i1 [ true, %2 ], [ %21, %22 ]
  store i1 %24, ptr %3, align 1
  %25 = load i1, ptr %13, align 1
  br i1 %25, label %26, label %27

26:                                               ; preds = %23
  call void @_ZN4lean10object_refD2Ev(ptr noundef nonnull align 8 dereferenceable(8) %9) #17
  br label %27

27:                                               ; preds = %26, %23
  %28 = load i1, ptr %10, align 1
  br i1 %28, label %29, label %30

29:                                               ; preds = %27
  call void @llvm.lifetime.end.p0(i64 8, ptr %9) #17
  br label %30

30:                                               ; preds = %29, %27
  %31 = load i1, ptr %8, align 1
  br i1 %31, label %32, label %33

32:                                               ; preds = %30
  call void @_ZN4lean10object_refD2Ev(ptr noundef nonnull align 8 dereferenceable(8) %6) #17
  br label %33

33:                                               ; preds = %32, %30
  %34 = load i1, ptr %7, align 1
  br i1 %34, label %35, label %36

35:                                               ; preds = %33
  call void @llvm.lifetime.end.p0(i64 8, ptr %6) #17
  br label %36

36:                                               ; preds = %35, %33
  %37 = load i1, ptr %3, align 1
  ret i1 %37

38:                                               ; preds = %17
  %39 = landingpad { ptr, i32 }
          cleanup
  %40 = extractvalue { ptr, i32 } %39, 0
  store ptr %40, ptr %11, align 8
  %41 = extractvalue { ptr, i32 } %39, 1
  store i32 %41, ptr %12, align 4
  br label %49

42:                                               ; preds = %20
  %43 = landingpad { ptr, i32 }
          cleanup
  %44 = extractvalue { ptr, i32 } %43, 0
  store ptr %44, ptr %11, align 8
  %45 = extractvalue { ptr, i32 } %43, 1
  store i32 %45, ptr %12, align 4
  %46 = load i1, ptr %13, align 1
  br i1 %46, label %47, label %48

47:                                               ; preds = %42
  call void @_ZN4lean10object_refD2Ev(ptr noundef nonnull align 8 dereferenceable(8) %9) #17
  br label %48

48:                                               ; preds = %47, %42
  br label %49

49:                                               ; preds = %48, %38
  %50 = load i1, ptr %10, align 1
  br i1 %50, label %51, label %52

51:                                               ; preds = %49
  call void @llvm.lifetime.end.p0(i64 8, ptr %9) #17
  br label %52

52:                                               ; preds = %51, %49
  %53 = load i1, ptr %8, align 1
  br i1 %53, label %54, label %55

54:                                               ; preds = %52
  call void @_ZN4lean10object_refD2Ev(ptr noundef nonnull align 8 dereferenceable(8) %6) #17
  br label %55

55:                                               ; preds = %54, %52
  %56 = load i1, ptr %7, align 1
  br i1 %56, label %57, label %58

57:                                               ; preds = %55
  call void @llvm.lifetime.end.p0(i64 8, ptr %6) #17
  br label %58

58:                                               ; preds = %57, %55
  br label %59

59:                                               ; preds = %58
  %60 = load ptr, ptr %11, align 8
  %61 = load i32, ptr %12, align 4
  %62 = insertvalue { ptr, i32 } poison, ptr %60, 0
  %63 = insertvalue { ptr, i32 } %62, i32 %61, 1
  resume { ptr, i32 } %63
}