; Function Attrs: mustprogress uwtable
define hidden noundef zeroext i1 @_ZN4lean13is_equivalentERKNS_5levelES2_(ptr noundef nonnull readonly align 8 captures(none) dereferenceable(8) %0, ptr noundef nonnull readonly align 8 captures(none) dereferenceable(8) %1) local_unnamed_addr #0 personality ptr @__gxx_personality_v0 {
  %3 = alloca %"class.lean::level", align 8
  %4 = alloca %"class.lean::level", align 8
  tail call void @_ZN4lean12check_systemEPKcb(ptr noundef nonnull @.str, i1 noundef zeroext false)
  %5 = tail call noundef zeroext i1 @_ZN4leaneqERKNS_5levelES2_(ptr noundef nonnull align 8 dereferenceable(8) %0, ptr noundef nonnull align 8 dereferenceable(8) %1)
  br i1 %5, label %.critedge21, label %6

6:                                                ; preds = %2
  call void @llvm.lifetime.start.p0(i64 8, ptr nonnull %3) #19
  call void @_ZN4lean9normalizeERKNS_5levelE(ptr dead_on_unwind nonnull writable sret(%"class.lean::level") align 8 %3, ptr noundef nonnull align 8 dereferenceable(8) %0)
  call void @llvm.lifetime.start.p0(i64 8, ptr nonnull %4) #19
  invoke void @_ZN4lean9normalizeERKNS_5levelE(ptr dead_on_unwind nonnull writable sret(%"class.lean::level") align 8 %4, ptr noundef nonnull align 8 dereferenceable(8) %1)
          to label %7 unwind label %36

7:                                                ; preds = %6
  %8 = invoke noundef zeroext i1 @_ZN4leaneqERKNS_5levelES2_(ptr noundef nonnull align 8 dereferenceable(8) %3, ptr noundef nonnull align 8 dereferenceable(8) %4)
          to label %.critedge unwind label %38

.critedge:                                        ; preds = %7
  %9 = load ptr, ptr %4, align 8, !tbaa !3
  %10 = ptrtoint ptr %9 to i64
  %11 = and i64 %10, 1
  %.not.i.i = icmp eq i64 %11, 0
  br i1 %.not.i.i, label %12, label %_ZN4lean10object_refD2Ev.exit

12:                                               ; preds = %.critedge
  %13 = load i32, ptr %9, align 4, !tbaa !8
  %14 = icmp sgt i32 %13, 1
  br i1 %14, label %15, label %17, !prof !11

15:                                               ; preds = %12
  %16 = add nsw i32 %13, -1
  store i32 %16, ptr %9, align 4, !tbaa !8
  br label %_ZN4lean10object_refD2Ev.exit

17:                                               ; preds = %12
  %.not.i.i.i = icmp eq i32 %13, 0
  br i1 %.not.i.i.i, label %_ZN4lean10object_refD2Ev.exit, label %18

18:                                               ; preds = %17
  invoke void @lean_dec_ref_cold(ptr noundef nonnull %9)
          to label %_ZN4lean10object_refD2Ev.exit unwind label %19

19:                                               ; preds = %18
  %20 = landingpad { ptr, i32 }
          catch ptr null
  %21 = extractvalue { ptr, i32 } %20, 0
  call void @__clang_call_terminate(ptr %21) #21
  unreachable

_ZN4lean10object_refD2Ev.exit:                    ; preds = %.critedge, %15, %17, %18
  call void @llvm.lifetime.end.p0(i64 8, ptr nonnull %4) #19
  %22 = load ptr, ptr %3, align 8, !tbaa !3
  %23 = ptrtoint ptr %22 to i64
  %24 = and i64 %23, 1
  %.not.i.i22 = icmp eq i64 %24, 0
  br i1 %.not.i.i22, label %25, label %_ZN4lean10object_refD2Ev.exit24

25:                                               ; preds = %_ZN4lean10object_refD2Ev.exit
  %26 = load i32, ptr %22, align 4, !tbaa !8
  %27 = icmp sgt i32 %26, 1
  br i1 %27, label %28, label %30, !prof !11

28:                                               ; preds = %25
  %29 = add nsw i32 %26, -1
  store i32 %29, ptr %22, align 4, !tbaa !8
  br label %_ZN4lean10object_refD2Ev.exit24

30:                                               ; preds = %25
  %.not.i.i.i23 = icmp eq i32 %26, 0
  br i1 %.not.i.i.i23, label %_ZN4lean10object_refD2Ev.exit24, label %31

31:                                               ; preds = %30
  invoke void @lean_dec_ref_cold(ptr noundef nonnull %22)
          to label %_ZN4lean10object_refD2Ev.exit24 unwind label %32

32:                                               ; preds = %31
  %33 = landingpad { ptr, i32 }
          catch ptr null
  %34 = extractvalue { ptr, i32 } %33, 0
  call void @__clang_call_terminate(ptr %34) #21
  unreachable

_ZN4lean10object_refD2Ev.exit24:                  ; preds = %_ZN4lean10object_refD2Ev.exit, %28, %30, %31
  call void @llvm.lifetime.end.p0(i64 8, ptr nonnull %3) #19
  br label %.critedge21

.critedge21:                                      ; preds = %2, %_ZN4lean10object_refD2Ev.exit24
  %35 = phi i1 [ %8, %_ZN4lean10object_refD2Ev.exit24 ], [ true, %2 ]
  ret i1 %35

36:                                               ; preds = %6
  %37 = landingpad { ptr, i32 }
          cleanup
  br label %40

38:                                               ; preds = %7
  %39 = landingpad { ptr, i32 }
          cleanup
  call void @_ZN4lean10object_refD2Ev(ptr noundef nonnull align 8 dereferenceable(8) %4) #19
  br label %40

40:                                               ; preds = %36, %38
  %.pn = phi { ptr, i32 } [ %39, %38 ], [ %37, %36 ]
  call void @llvm.lifetime.end.p0(i64 8, ptr nonnull %4) #19
  call void @_ZN4lean10object_refD2Ev(ptr noundef nonnull align 8 dereferenceable(8) %3) #19
  call void @llvm.lifetime.end.p0(i64 8, ptr nonnull %3) #19
  resume { ptr, i32 } %.pn
}